target datalayout = "e-m:e-p270:32:32-p271:32:32-p272:64:64-i64:64-i128:128-f80:128-n8:16:32:64-S128"
target triple = "x86_64-pc-linux-gnu"

%struct.gmx_wallcycle = type <{ %"struct.gmx::EnumerationArray", i64, %"struct.gmx::EnumerationArray.2", ptr, %"class.std::vector", i32, i32, i64, i8, i8, %"struct.std::array", i8, i32, i8, [7 x i8] }>
%"struct.gmx::EnumerationArray" = type { [52 x %struct.wallcc_t] }
%struct.wallcc_t = type { i32, i64, i64 }
%"struct.gmx::EnumerationArray.2" = type { [41 x %struct.wallcc_t] }
%"class.std::vector" = type { %"struct.std::_Vector_base" }
%"struct.std::_Vector_base" = type { %"struct.std::_Vector_base<wallcc_t, std::allocator<wallcc_t>>::_Vector_impl" }
%"struct.std::_Vector_base<wallcc_t, std::allocator<wallcc_t>>::_Vector_impl" = type { %"struct.std::_Vector_base<wallcc_t, std::allocator<wallcc_t>>::_Vector_impl_data" }
%"struct.std::_Vector_base<wallcc_t, std::allocator<wallcc_t>>::_Vector_impl_data" = type { ptr, ptr, ptr }
%"struct.std::array" = type { %"struct.std::__array_traits<WallCycleCounter, 0>::_Type" }
%"struct.std::__array_traits<WallCycleCounter, 0>::_Type" = type { i8 }
%"class.__gnu_cxx::__normal_iterator" = type { ptr }

; Function Attrs: mustprogress nounwind uwtable
define linkonce_odr noundef nonnull align 8 dereferenceable(8) ptr @_ZNK9__gnu_cxx17__normal_iteratorIPK8wallcc_tSt6vectorIS1_SaIS1_EEE4baseEv(ptr noundef nonnull align 8 dereferenceable(8) %0) #1 comdat align 2 {
  %2 = alloca ptr, align 8
  store ptr %0, ptr %2, align 8
  %3 = load ptr, ptr %2, align 8
  %4 = getelementptr inbounds %"class.__gnu_cxx::__normal_iterator", ptr %3, i32 0, i32 0
  ret ptr %4
}

; Function Attrs: mustprogress nounwind uwtable
define linkonce_odr void @_ZN9__gnu_cxx17__normal_iteratorIPK8wallcc_tSt6vectorIS1_SaIS1_EEEC2ERKS3_(ptr noundef nonnull align 8 dereferenceable(8) %0, ptr noundef nonnull align 8 dereferenceable(8) %1) unnamed_addr #1 comdat align 2 {
  %3 = alloca ptr, align 8
  %4 = alloca ptr, align 8
  store ptr %0, ptr %3, align 8
  store ptr %1, ptr %4, align 8
  %5 = load ptr, ptr %3, align 8
  %6 = getelementptr inbounds %"class.__gnu_cxx::__normal_iterator", ptr %5, i32 0, i32 0
  %7 = load ptr, ptr %4, align 8
  %8 = load ptr, ptr %7, align 8
  store ptr %8, ptr %6, align 8
  ret void
}

; Function Attrs: mustprogress nounwind uwtable
define linkonce_odr noundef zeroext i1 @_ZN9__gnu_cxxeqIPK8wallcc_tSt6vectorIS1_SaIS1_EEEEbRKNS_17__normal_iteratorIT_T0_EESC_(ptr noundef nonnull align 8 dereferenceable(8) %0, ptr noundef nonnull align 8 dereferenceable(8) %1) #1 comdat {
  %3 = alloca ptr, align 8
  %4 = alloca ptr, align 8
  store ptr %0, ptr %3, align 8
  store ptr %1, ptr %4, align 8
  %5 = load ptr, ptr %3, align 8
  %6 = call noundef nonnull align 8 dereferenceable(8) ptr @_ZNK9__gnu_cxx17__normal_iteratorIPK8wallcc_tSt6vectorIS1_SaIS1_EEE4baseEv(ptr noundef nonnull align 8 dereferenceable(8) %5) #13
  %7 = load ptr, ptr %6, align 8
  %8 = load ptr, ptr %4, align 8
  %9 = call noundef nonnull align 8 dereferenceable(8) ptr @_ZNK9__gnu_cxx17__normal_iteratorIPK8wallcc_tSt6vectorIS1_SaIS1_EEE4baseEv(ptr noundef nonnull align 8 dereferenceable(8) %8) #13
  %10 = load ptr, ptr %9, align 8
  %11 = icmp eq ptr %7, %10
  ret i1 %11
}

; Function Attrs: mustprogress nounwind uwtable
define linkonce_odr ptr @_ZNKSt6vectorI8wallcc_tSaIS0_EE3endEv(ptr noundef nonnull align 8 dereferenceable(24) %0) #1 comdat align 2 {
  %2 = alloca %"class.__gnu_cxx::__normal_iterator", align 8
  %3 = alloca ptr, align 8
  store ptr %0, ptr %3, align 8
  %4 = load ptr, ptr %3, align 8
  %5 = getelementptr inbounds %"struct.std::_Vector_base", ptr %4, i32 0, i32 0
  %6 = getelementptr inbounds %"struct.std::_Vector_base<wallcc_t, std::allocator<wallcc_t>>::_Vector_impl_data", ptr %5, i32 0, i32 1
  call void @_ZN9__gnu_cxx17__normal_iteratorIPK8wallcc_tSt6vectorIS1_SaIS1_EEEC2ERKS3_(ptr noundef nonnull align 8 dereferenceable(8) %2, ptr noundef nonnull align 8 dereferenceable(8) %6) #13
  %7 = getelementptr inbounds %"class.__gnu_cxx::__normal_iterator", ptr %2, i32 0, i32 0
  %8 = load ptr, ptr %7, align 8
  ret ptr %8
}

; Function Attrs: mustprogress nounwind uwtable
define linkonce_odr ptr @_ZNKSt6vectorI8wallcc_tSaIS0_EE5beginEv(ptr noundef nonnull align 8 dereferenceable(24) %0) #1 comdat align 2 {
  %2 = alloca %"class.__gnu_cxx::__normal_iterator", align 8
  %3 = alloca ptr, align 8
  store ptr %0, ptr %3, align 8
  %4 = load ptr, ptr %3, align 8
  %5 = getelementptr inbounds %"struct.std::_Vector_base", ptr %4, i32 0, i32 0
  %6 = getelementptr inbounds %"struct.std::_Vector_base<wallcc_t, std::allocator<wallcc_t>>::_Vector_impl_data", ptr %5, i32 0, i32 0
  call void @_ZN9__gnu_cxx17__normal_iteratorIPK8wallcc_tSt6vectorIS1_SaIS1_EEEC2ERKS3_(ptr noundef nonnull align 8 dereferenceable(8) %2, ptr noundef nonnull align 8 dereferenceable(8) %6) #13
  %7 = getelementptr inbounds %"class.__gnu_cxx::__normal_iterator", ptr %2, i32 0, i32 0
  %8 = load ptr, ptr %7, align 8
  ret ptr %8
}

; Function Attrs: mustprogress nounwind uwtable
define linkonce_odr noundef i64 @_ZNK3gmx16EnumerationArrayI16WallCycleCounter8wallcc_tLS1_52EE4sizeEv(ptr noundef nonnull align 8 dereferenceable(1248) %0) #1 comdat align 2 {
  %2 = alloca ptr, align 8
  store ptr %0, ptr %2, align 8
  ret i64 52
}

; Function Attrs: mustprogress nounwind uwtable
define linkonce_odr noundef nonnull align 8 dereferenceable(24) ptr @_ZNSt6vectorI8wallcc_tSaIS0_EEixEm(ptr noundef nonnull align 8 dereferenceable(24) %0, i64 noundef %1) #1 comdat align 2 {
  %3 = alloca ptr, align 8
  %4 = alloca i64, align 8
  store ptr %0, ptr %3, align 8
  store i64 %1, ptr %4, align 8
  %5 = load ptr, ptr %3, align 8
  %6 = getelementptr inbounds %"struct.std::_Vector_base", ptr %5, i32 0, i32 0
  %7 = getelementptr inbounds %"struct.std::_Vector_base<wallcc_t, std::allocator<wallcc_t>>::_Vector_impl_data", ptr %6, i32 0, i32 0
  %8 = load ptr, ptr %7, align 8
  %9 = load i64, ptr %4, align 8
  %10 = getelementptr inbounds %struct.wallcc_t, ptr %8, i64 %9
  ret ptr %10
}

; Function Attrs: mustprogress nounwind uwtable
define linkonce_odr noundef zeroext i1 @_ZNKSt6vectorI8wallcc_tSaIS0_EE5emptyEv(ptr noundef nonnull align 8 dereferenceable(24) %0) #1 comdat align 2 {
  %2 = alloca ptr, align 8
  %3 = alloca %"class.__gnu_cxx::__normal_iterator", align 8
  %4 = alloca %"class.__gnu_cxx::__normal_iterator", align 8
  store ptr %0, ptr %2, align 8
  %5 = load ptr, ptr %2, align 8
  %6 = call ptr @_ZNKSt6vectorI8wallcc_tSaIS0_EE5beginEv(ptr noundef nonnull align 8 dereferenceable(24) %5) #13
  %7 = getelementptr inbounds %"class.__gnu_cxx::__normal_iterator", ptr %3, i32 0, i32 0
  store ptr %6, ptr %7, align 8
  %8 = call ptr @_ZNKSt6vectorI8wallcc_tSaIS0_EE3endEv(ptr noundef nonnull align 8 dereferenceable(24) %5) #13
  %9 = getelementptr inbounds %"class.__gnu_cxx::__normal_iterator", ptr %4, i32 0, i32 0
  store ptr %8, ptr %9, align 8
  %10 = call noundef zeroext i1 @_ZN9__gnu_cxxeqIPK8wallcc_tSt6vectorIS1_SaIS1_EEEEbRKNS_17__normal_iteratorIT_T0_EESC_(ptr noundef nonnull align 8 dereferenceable(8) %3, ptr noundef nonnull align 8 dereferenceable(8) %4) #13
  ret i1 %10
}

; Function Attrs: mustprogress uwtable
define linkonce_odr noundef ptr @_ZN3gmx16EnumerationArrayI16WallCycleCounter8wallcc_tLS1_52EE3endEv(ptr noundef nonnull align 8 dereferenceable(1248) %0) #0 comdat align 2 {
  %2 = alloca ptr, align 8
  store ptr %0, ptr %2, align 8
  %3 = load ptr, ptr %2, align 8
  %4 = getelementptr inbounds %"struct.gmx::EnumerationArray", ptr %3, i32 0, i32 0
  %5 = call noundef i64 @_ZNK3gmx16EnumerationArrayI16WallCycleCounter8wallcc_tLS1_52EE4sizeEv(ptr noundef nonnull align 8 dereferenceable(1248) %3)
  %6 = getelementptr inbounds [52 x %struct.wallcc_t], ptr %4, i64 0, i64 %5
  ret ptr %6
}

; Function Attrs: mustprogress nounwind uwtable
define linkonce_odr noundef ptr @_ZN3gmx16EnumerationArrayI16WallCycleCounter8wallcc_tLS1_52EE5beginEv(ptr noundef nonnull align 8 dereferenceable(1248) %0) #1 comdat align 2 {
  %2 = alloca ptr, align 8
  store ptr %0, ptr %2, align 8
  %3 = load ptr, ptr %2, align 8
  %4 = getelementptr inbounds %"struct.gmx::EnumerationArray", ptr %3, i32 0, i32 0
  %5 = getelementptr inbounds [52 x %struct.wallcc_t], ptr %4, i64 0, i64 0
  ret ptr %5
}

; Function Attrs: mustprogress uwtable
define void @_Z19wallcycle_reset_allP13gmx_wallcycle(ptr noundef %0) #0 {
  %2 = alloca ptr, align 8
  %3 = alloca ptr, align 8
  %4 = alloca ptr, align 8
  %5 = alloca ptr, align 8
  %6 = alloca ptr, align 8
  %7 = alloca i32, align 4
  store ptr %0, ptr %2, align 8
  %8 = load ptr, ptr %2, align 8
  %9 = icmp eq ptr %8, null
  br i1 %9, label %10, label %11

10:                                               ; preds = %1
  br label %58

11:                                               ; preds = %1
  %12 = load ptr, ptr %2, align 8
  %13 = getelementptr inbounds %struct.gmx_wallcycle, ptr %12, i32 0, i32 0
  store ptr %13, ptr %3, align 8
  %14 = load ptr, ptr %3, align 8
  %15 = call noundef ptr @_ZN3gmx16EnumerationArrayI16WallCycleCounter8wallcc_tLS1_52EE5beginEv(ptr noundef nonnull align 8 dereferenceable(1248) %14)
  store ptr %15, ptr %4, align 8
  %16 = load ptr, ptr %3, align 8
  %17 = call noundef ptr @_ZN3gmx16EnumerationArrayI16WallCycleCounter8wallcc_tLS1_52EE3endEv(ptr noundef nonnull align 8 dereferenceable(1248) %16)
  store ptr %17, ptr %5, align 8
  br label %18

18:                                               ; preds = %28, %11
  %19 = load ptr, ptr %4, align 8
  %20 = load ptr, ptr %5, align 8
  %21 = icmp ne ptr %19, %20
  br i1 %21, label %22, label %31

22:                                               ; preds = %18
  %23 = load ptr, ptr %4, align 8
  store ptr %23, ptr %6, align 8
  %24 = load ptr, ptr %6, align 8
  %25 = getelementptr inbounds %struct.wallcc_t, ptr %24, i32 0, i32 0
  store i32 0, ptr %25, align 8
  %26 = load ptr, ptr %6, align 8
  %27 = getelementptr inbounds %struct.wallcc_t, ptr %26, i32 0, i32 1
  store i64 0, ptr %27, align 8
  br label %28

28:                                               ; preds = %22
  %29 = load ptr, ptr %4, align 8
  %30 = getelementptr inbounds %struct.wallcc_t, ptr %29, i32 1
  store ptr %30, ptr %4, align 8
  br label %18

31:                                               ; preds = %18
  %32 = load ptr, ptr %2, align 8
  %33 = getelementptr inbounds %struct.gmx_wallcycle, ptr %32, i32 0, i32 8
  store i8 0, ptr %33, align 8
  %34 = load ptr, ptr %2, align 8
  %35 = getelementptr inbounds %struct.gmx_wallcycle, ptr %34, i32 0, i32 4
  %36 = call noundef zeroext i1 @_ZNKSt6vectorI8wallcc_tSaIS0_EE5emptyEv(ptr noundef nonnull align 8 dereferenceable(24) %35) #13
  br i1 %36, label %58, label %37

37:                                               ; preds = %31
  store i32 0, ptr %7, align 4
  br label %38

38:                                               ; preds = %54, %37
  %39 = load i32, ptr %7, align 4
  %40 = icmp slt i32 %39, 2704
  br i1 %40, label %41, label %57

41:                                               ; preds = %38
  %42 = load ptr, ptr %2, align 8
  %43 = getelementptr inbounds %struct.gmx_wallcycle, ptr %42, i32 0, i32 4
  %44 = load i32, ptr %7, align 4
  %45 = sext i32 %44 to i64
  %46 = call noundef nonnull align 8 dereferenceable(24) ptr @_ZNSt6vectorI8wallcc_tSaIS0_EEixEm(ptr noundef nonnull align 8 dereferenceable(24) %43, i64 noundef %45) #13
  %47 = getelementptr inbounds %struct.wallcc_t, ptr %46, i32 0, i32 0
  store i32 0, ptr %47, align 8
  %48 = load ptr, ptr %2, align 8
  %49 = getelementptr inbounds %struct.gmx_wallcycle, ptr %48, i32 0, i32 4
  %50 = load i32, ptr %7, align 4
  %51 = sext i32 %50 to i64
  %52 = call noundef nonnull align 8 dereferenceable(24) ptr @_ZNSt6vectorI8wallcc_tSaIS0_EEixEm(ptr noundef nonnull align 8 dereferenceable(24) %49, i64 noundef %51) #13
  %53 = getelementptr inbounds %struct.wallcc_t, ptr %52, i32 0, i32 1
  store i64 0, ptr %53, align 8
  br label %54

54:                                               ; preds = %41
  %55 = load i32, ptr %7, align 4
  %56 = add nsw i32 %55, 1
  store i32 %56, ptr %7, align 4
  br label %38, !llvm.loop !8

57:                                               ; preds = %38
  br label %58

58:                                               ; preds = %57, %31, %10
  ret void
}