; Function Attrs: mustprogress nofree norecurse nosync nounwind memory(write, argmem: readwrite, inaccessiblemem: none) uwtable
define void @_Z19wallcycle_reset_allP13gmx_wallcycle(ptr noundef %0) local_unnamed_addr #11 {
  %2 = icmp eq ptr %0, null
  br i1 %2, label %.loopexit, label %.preheader19

.preheader19:                                     ; preds = %1, %.preheader19
  %.017.idx20 = phi i64 [ %.017.add, %.preheader19 ], [ 0, %1 ]
  %.017.ptr = getelementptr inbounds i8, ptr %0, i64 %.017.idx20
  store i32 0, ptr %.017.ptr, align 8
  %3 = getelementptr inbounds i8, ptr %.017.ptr, i64 8
  store i64 0, ptr %3, align 8
  %.017.add = add nuw nsw i64 %.017.idx20, 24
  %.not = icmp eq i64 %.017.add, 1248
  br i1 %.not, label %4, label %.preheader19

4:                                                ; preds = %.preheader19
  %5 = getelementptr inbounds i8, ptr %0, i64 2288
  store i8 0, ptr %5, align 8
  %6 = getelementptr inbounds i8, ptr %0, i64 2248
  %7 = load ptr, ptr %6, align 8
  %8 = getelementptr inbounds i8, ptr %0, i64 2256
  %9 = load ptr, ptr %8, align 8
  %10 = icmp eq ptr %7, %9
  br i1 %10, label %.loopexit, label %.preheader

.preheader:                                       ; preds = %4, %.preheader
  %indvars.iv = phi i64 [ %indvars.iv.next, %.preheader ], [ 0, %4 ]
  %11 = load ptr, ptr %6, align 8
  %12 = getelementptr inbounds %struct.wallcc_t, ptr %11, i64 %indvars.iv
  store i32 0, ptr %12, align 8
  %13 = load ptr, ptr %6, align 8
  %14 = getelementptr inbounds %struct.wallcc_t, ptr %13, i64 %indvars.iv, i32 1
  store i64 0, ptr %14, align 8
  %indvars.iv.next = add nuw nsw i64 %indvars.iv, 1
  %exitcond.not = icmp eq i64 %indvars.iv.next, 2704
  br i1 %exitcond.not, label %.loopexit, label %.preheader, !llvm.loop !14

.loopexit:                                        ; preds = %.preheader, %1, %4
  ret void
}